target datalayout = "e-m:e-p270:32:32-p271:32:32-p272:64:64-i64:64-i128:128-f80:128-n8:16:32:64-S128"
target triple = "x86_64-pc-linux-gnu"

%struct.H5O_msg_class_t = type { i32, ptr, i64, i32, ptr, ptr, ptr, ptr, ptr, ptr, ptr, ptr, ptr, ptr, ptr, ptr, ptr, ptr, ptr, ptr }
%struct.H5O_shared_t = type { i32, ptr, i32, %union.anon }
%union.anon = type { %struct.H5O_mesg_loc_t }
%struct.H5O_mesg_loc_t = type { i32, i64 }
%struct.H5A_bt2_ud_common_t = type { ptr, ptr, ptr, ptr, i32, i8, i32, ptr, ptr }
%union.H5O_fheap_id_t = type { i64 }
%struct.H5A_dense_bt2_name_rec_t = type { %union.H5O_fheap_id_t, i8, i32, i32 }
%struct.H5A_fh_ud_cp_t = type { ptr, ptr, ptr }

@H5A_init_g = external global i8, align 1
@H5_libterm_g = external global i8, align 1
@.str = private unnamed_addr constant [102 x i8] c"generated/home/dtcxzyw/WorkSpace/Projects/compilers/llvm-opt-benchmark/bench/hdf5/hdf5/src/H5Adense.c\00", align 1
@H5E_ATTR_g = external global i64, align 8
@H5E_CANTDELETE_g = external global i64, align 8
@H5E_CANTFREE_g = external global i64, align 8
@H5O_MSG_ATTR = external constant [1 x %struct.H5O_msg_class_t], align 16
@H5E_CANTOPERATE_g = external global i64, align 8
@.str.50 = private unnamed_addr constant [24 x i8] c"heap op callback failed\00", align 1
@.str.55 = private unnamed_addr constant [34 x i8] c"unable to delete shared attribute\00", align 1
@.str.56 = private unnamed_addr constant [27 x i8] c"unable to delete attribute\00", align 1
@__func__.H5A__dense_delete_bt2_cb = private unnamed_addr constant [25 x i8] c"H5A__dense_delete_bt2_cb\00", align 1

; Function Attrs: nounwind uwtable
define internal i32 @H5A__dense_delete_bt2_cb(ptr noundef %0, ptr noundef %1) #0 {
  %3 = alloca i32, align 4
  %4 = alloca ptr, align 8
  %5 = alloca ptr, align 8
  %6 = alloca ptr, align 8
  %7 = alloca ptr, align 8
  %8 = alloca ptr, align 8
  %9 = alloca i32, align 4
  %10 = alloca i8, align 1
  %11 = alloca %struct.H5O_shared_t, align 8
  %12 = alloca i32, align 4
  %13 = alloca %struct.H5A_fh_ud_cp_t, align 8
  store ptr %0, ptr %4, align 8, !tbaa !62
  store ptr %1, ptr %5, align 8, !tbaa !62
  call void @llvm.lifetime.start.p0(i64 8, ptr %6) #7
  %14 = load ptr, ptr %4, align 8, !tbaa !62
  store ptr %14, ptr %6, align 8, !tbaa !97
  call void @llvm.lifetime.start.p0(i64 8, ptr %7) #7
  %15 = load ptr, ptr %5, align 8, !tbaa !62
  store ptr %15, ptr %7, align 8, !tbaa !149
  call void @llvm.lifetime.start.p0(i64 8, ptr %8) #7
  store ptr null, ptr %8, align 8, !tbaa !46
  call void @llvm.lifetime.start.p0(i64 4, ptr %9) #7
  store i32 0, ptr %9, align 4, !tbaa !14
  call void @llvm.lifetime.start.p0(i64 1, ptr %10) #7
  store i8 0, ptr %10, align 1, !tbaa !16
  %16 = load i8, ptr @H5A_init_g, align 1, !tbaa !16, !range !18, !noundef !19
  %17 = trunc i8 %16 to i1
  br i1 %17, label %22, label %18

18:                                               ; preds = %2
  %19 = load i8, ptr @H5_libterm_g, align 1, !tbaa !16, !range !18, !noundef !19
  %20 = trunc i8 %19 to i1
  %21 = xor i1 %20, true
  br label %22

22:                                               ; preds = %18, %2
  %23 = phi i1 [ true, %2 ], [ %21, %18 ]
  %24 = xor i1 %23, true
  %25 = xor i1 %24, true
  %26 = zext i1 %25 to i32
  %27 = sext i32 %26 to i64
  %28 = call i64 @llvm.expect.i64(i64 %27, i64 1)
  %29 = icmp ne i64 %28, 0
  br i1 %29, label %30, label %149

30:                                               ; preds = %22
  %31 = load ptr, ptr %6, align 8, !tbaa !97
  %32 = getelementptr inbounds nuw %struct.H5A_dense_bt2_name_rec_t, ptr %31, i32 0, i32 1
  %33 = load i8, ptr %32, align 8, !tbaa !101
  %34 = zext i8 %33 to i32
  %35 = and i32 %34, 2
  %36 = icmp ne i32 %35, 0
  br i1 %36, label %37, label %74

37:                                               ; preds = %30
  call void @llvm.lifetime.start.p0(i64 40, ptr %11) #7
  %38 = load ptr, ptr %7, align 8, !tbaa !149
  %39 = getelementptr inbounds nuw %struct.H5A_bt2_ud_common_t, ptr %38, i32 0, i32 0
  %40 = load ptr, ptr %39, align 8, !tbaa !50
  %41 = load ptr, ptr %6, align 8, !tbaa !97
  %42 = getelementptr inbounds nuw %struct.H5A_dense_bt2_name_rec_t, ptr %41, i32 0, i32 0
  %43 = getelementptr inbounds nuw %union.H5O_fheap_id_t, ptr %42, i32 0, i32 0
  %44 = load i64, ptr %43, align 8
  %45 = call i32 @H5SM_reconstitute(ptr noundef %11, ptr noundef %40, i32 noundef 12, i64 %44)
  %46 = load ptr, ptr %7, align 8, !tbaa !149
  %47 = getelementptr inbounds nuw %struct.H5A_bt2_ud_common_t, ptr %46, i32 0, i32 0
  %48 = load ptr, ptr %47, align 8, !tbaa !50
  %49 = call i32 @H5SM_delete(ptr noundef %48, ptr noundef null, ptr noundef %11)
  %50 = icmp slt i32 %49, 0
  br i1 %50, label %51, label %70

51:                                               ; preds = %37
  br label %52

52:                                               ; preds = %51
  br label %53

53:                                               ; preds = %52
  br label %54

54:                                               ; preds = %53
  %55 = load i64, ptr @H5E_ATTR_g, align 8, !tbaa !34
  %56 = load i64, ptr @H5E_CANTFREE_g, align 8, !tbaa !34
  %57 = call i32 (ptr, ptr, i32, i64, i64, ptr, ...) @H5E_printf_stack(ptr noundef @.str, ptr noundef @__func__.H5A__dense_delete_bt2_cb, i32 noundef 1738, i64 noundef %55, i64 noundef %56, ptr noundef @.str.55)
  br label %58

58:                                               ; preds = %54
  br label %59

59:                                               ; preds = %58
  store i8 1, ptr %10, align 1, !tbaa !16
  %60 = load i8, ptr %10, align 1, !tbaa !16, !range !18, !noundef !19
  %61 = trunc i8 %60 to i1
  %62 = zext i1 %61 to i8
  store i8 %62, ptr %10, align 1, !tbaa !16
  br label %63

63:                                               ; preds = %59
  br label %64

64:                                               ; preds = %63
  br label %65

65:                                               ; preds = %64
  store i32 -1, ptr %9, align 4, !tbaa !14
  store i32 10, ptr %12, align 4
  br label %71

66:                                               ; No predecessors!
  br label %67

67:                                               ; preds = %66
  br label %68

68:                                               ; preds = %67
  br label %69

69:                                               ; preds = %68
  br label %70

70:                                               ; preds = %69, %37
  store i32 0, ptr %12, align 4
  br label %71

71:                                               ; preds = %65, %70
  call void @llvm.lifetime.end.p0(i64 40, ptr %11) #7
  %72 = load i32, ptr %12, align 4
  switch i32 %72, label %151 [
    i32 0, label %73
    i32 10, label %142
  ]

73:                                               ; preds = %71
  br label %141

74:                                               ; preds = %30
  call void @llvm.lifetime.start.p0(i64 24, ptr %13) #7
  %75 = load ptr, ptr %7, align 8, !tbaa !149
  %76 = getelementptr inbounds nuw %struct.H5A_bt2_ud_common_t, ptr %75, i32 0, i32 0
  %77 = load ptr, ptr %76, align 8, !tbaa !50
  %78 = getelementptr inbounds nuw %struct.H5A_fh_ud_cp_t, ptr %13, i32 0, i32 0
  store ptr %77, ptr %78, align 8, !tbaa !130
  %79 = load ptr, ptr %6, align 8, !tbaa !97
  %80 = getelementptr inbounds nuw %struct.H5A_fh_ud_cp_t, ptr %13, i32 0, i32 1
  store ptr %79, ptr %80, align 8, !tbaa !132
  %81 = getelementptr inbounds nuw %struct.H5A_fh_ud_cp_t, ptr %13, i32 0, i32 2
  store ptr null, ptr %81, align 8, !tbaa !133
  %82 = load ptr, ptr %7, align 8, !tbaa !149
  %83 = getelementptr inbounds nuw %struct.H5A_bt2_ud_common_t, ptr %82, i32 0, i32 1
  %84 = load ptr, ptr %83, align 8, !tbaa !52
  %85 = load ptr, ptr %6, align 8, !tbaa !97
  %86 = getelementptr inbounds nuw %struct.H5A_dense_bt2_name_rec_t, ptr %85, i32 0, i32 0
  %87 = call i32 @H5HF_op(ptr noundef %84, ptr noundef %86, ptr noundef @H5A__dense_copy_fh_cb, ptr noundef %13)
  %88 = icmp slt i32 %87, 0
  br i1 %88, label %89, label %108

89:                                               ; preds = %74
  br label %90

90:                                               ; preds = %89
  br label %91

91:                                               ; preds = %90
  br label %92

92:                                               ; preds = %91
  %93 = load i64, ptr @H5E_ATTR_g, align 8, !tbaa !34
  %94 = load i64, ptr @H5E_CANTOPERATE_g, align 8, !tbaa !34
  %95 = call i32 (ptr, ptr, i32, i64, i64, ptr, ...) @H5E_printf_stack(ptr noundef @.str, ptr noundef @__func__.H5A__dense_delete_bt2_cb, i32 noundef 1752, i64 noundef %93, i64 noundef %94, ptr noundef @.str.50)
  br label %96

96:                                               ; preds = %92
  br label %97

97:                                               ; preds = %96
  store i8 1, ptr %10, align 1, !tbaa !16
  %98 = load i8, ptr %10, align 1, !tbaa !16, !range !18, !noundef !19
  %99 = trunc i8 %98 to i1
  %100 = zext i1 %99 to i8
  store i8 %100, ptr %10, align 1, !tbaa !16
  br label %101

101:                                              ; preds = %97
  br label %102

102:                                              ; preds = %101
  br label %103

103:                                              ; preds = %102
  store i32 -1, ptr %9, align 4, !tbaa !14
  store i32 10, ptr %12, align 4
  br label %138

104:                                              ; No predecessors!
  br label %105

105:                                              ; preds = %104
  br label %106

106:                                              ; preds = %105
  br label %107

107:                                              ; preds = %106
  br label %108

108:                                              ; preds = %107, %74
  %109 = getelementptr inbounds nuw %struct.H5A_fh_ud_cp_t, ptr %13, i32 0, i32 2
  %110 = load ptr, ptr %109, align 8, !tbaa !133
  store ptr %110, ptr %8, align 8, !tbaa !46
  %111 = load ptr, ptr %7, align 8, !tbaa !149
  %112 = getelementptr inbounds nuw %struct.H5A_bt2_ud_common_t, ptr %111, i32 0, i32 0
  %113 = load ptr, ptr %112, align 8, !tbaa !50
  %114 = getelementptr inbounds nuw %struct.H5A_fh_ud_cp_t, ptr %13, i32 0, i32 2
  %115 = load ptr, ptr %114, align 8, !tbaa !133
  %116 = call i32 @H5O__attr_delete(ptr noundef %113, ptr noundef null, ptr noundef %115)
  %117 = icmp slt i32 %116, 0
  br i1 %117, label %118, label %137

118:                                              ; preds = %108
  br label %119

119:                                              ; preds = %118
  br label %120

120:                                              ; preds = %119
  br label %121

121:                                              ; preds = %120
  %122 = load i64, ptr @H5E_ATTR_g, align 8, !tbaa !34
  %123 = load i64, ptr @H5E_CANTDELETE_g, align 8, !tbaa !34
  %124 = call i32 (ptr, ptr, i32, i64, i64, ptr, ...) @H5E_printf_stack(ptr noundef @.str, ptr noundef @__func__.H5A__dense_delete_bt2_cb, i32 noundef 1758, i64 noundef %122, i64 noundef %123, ptr noundef @.str.56)
  br label %125

125:                                              ; preds = %121
  br label %126

126:                                              ; preds = %125
  store i8 1, ptr %10, align 1, !tbaa !16
  %127 = load i8, ptr %10, align 1, !tbaa !16, !range !18, !noundef !19
  %128 = trunc i8 %127 to i1
  %129 = zext i1 %128 to i8
  store i8 %129, ptr %10, align 1, !tbaa !16
  br label %130

130:                                              ; preds = %126
  br label %131

131:                                              ; preds = %130
  br label %132

132:                                              ; preds = %131
  store i32 -1, ptr %9, align 4, !tbaa !14
  store i32 10, ptr %12, align 4
  br label %138

133:                                              ; No predecessors!
  br label %134

134:                                              ; preds = %133
  br label %135

135:                                              ; preds = %134
  br label %136

136:                                              ; preds = %135
  br label %137

137:                                              ; preds = %136, %108
  store i32 0, ptr %12, align 4
  br label %138

138:                                              ; preds = %132, %103, %137
  call void @llvm.lifetime.end.p0(i64 24, ptr %13) #7
  %139 = load i32, ptr %12, align 4
  switch i32 %139, label %151 [
    i32 0, label %140
    i32 10, label %142
  ]

140:                                              ; preds = %138
  br label %141

141:                                              ; preds = %140, %73
  br label %142

142:                                              ; preds = %141, %138, %71
  %143 = load ptr, ptr %8, align 8, !tbaa !46
  %144 = icmp ne ptr %143, null
  br i1 %144, label %145, label %148

145:                                              ; preds = %142
  %146 = load ptr, ptr %8, align 8, !tbaa !46
  %147 = call ptr @H5O_msg_free_real(ptr noundef @H5O_MSG_ATTR, ptr noundef %146)
  br label %148

148:                                              ; preds = %145, %142
  br label %149

149:                                              ; preds = %148, %22
  %150 = load i32, ptr %9, align 4, !tbaa !14
  store i32 %150, ptr %3, align 4
  store i32 1, ptr %12, align 4
  br label %151

151:                                              ; preds = %149, %138, %71
  call void @llvm.lifetime.end.p0(i64 1, ptr %10) #7
  call void @llvm.lifetime.end.p0(i64 4, ptr %9) #7
  call void @llvm.lifetime.end.p0(i64 8, ptr %8) #7
  call void @llvm.lifetime.end.p0(i64 8, ptr %7) #7
  call void @llvm.lifetime.end.p0(i64 8, ptr %6) #7
  %152 = load i32, ptr %3, align 4
  ret i32 %152
}