; Function Attrs: nounwind uwtable
define internal range(i32 -1, 1) i32 @H5A__dense_delete_bt2_cb(ptr noundef %0, ptr noundef readonly captures(none) %1) #0 {
  %3 = alloca %struct.H5O_shared_t, align 8
  %4 = alloca %struct.H5A_fh_ud_cp_t, align 8
  %5 = load i8, ptr @H5A_init_g, align 1, !tbaa !3, !range !7, !noundef !8
  %6 = trunc nuw i8 %5 to i1
  %7 = load i8, ptr @H5_libterm_g, align 1, !range !7
  %8 = trunc nuw i8 %7 to i1
  %9 = xor i1 %8, true
  %10 = select i1 %6, i1 true, i1 %9
  br i1 %10, label %11, label %49, !prof !9

11:                                               ; preds = %2
  %12 = getelementptr inbounds nuw i8, ptr %0, i64 8
  %13 = load i8, ptr %12, align 8, !tbaa !81
  %14 = and i8 %13, 2
  %.not = icmp eq i8 %14, 0
  br i1 %.not, label %26, label %15

15:                                               ; preds = %11
  call void @llvm.lifetime.start.p0(i64 40, ptr nonnull %3) #7
  %16 = load ptr, ptr %1, align 8, !tbaa !41
  %17 = load i64, ptr %0, align 8
  %18 = call i32 @H5SM_reconstitute(ptr noundef nonnull %3, ptr noundef %16, i32 noundef 12, i64 %17) #7
  %19 = load ptr, ptr %1, align 8, !tbaa !41
  %20 = call i32 @H5SM_delete(ptr noundef %19, ptr noundef null, ptr noundef nonnull %3) #7
  %21 = icmp slt i32 %20, 0
  br i1 %21, label %22, label %.thread

22:                                               ; preds = %15
  %23 = load i64, ptr @H5E_ATTR_g, align 8, !tbaa !27
  %24 = load i64, ptr @H5E_CANTFREE_g, align 8, !tbaa !27
  %25 = call i32 (ptr, ptr, i32, i64, i64, ptr, ...) @H5E_printf_stack(ptr noundef nonnull @.str, ptr noundef nonnull @__func__.H5A__dense_delete_bt2_cb, i32 noundef 1738, i64 noundef %23, i64 noundef %24, ptr noundef nonnull @.str.55) #7
  br label %.thread

.thread:                                          ; preds = %22, %15
  %.120 = phi i32 [ -1, %22 ], [ 0, %15 ]
  call void @llvm.lifetime.end.p0(i64 40, ptr nonnull %3) #7
  br label %49

26:                                               ; preds = %11
  call void @llvm.lifetime.start.p0(i64 24, ptr nonnull %4) #7
  %27 = load ptr, ptr %1, align 8, !tbaa !41
  store ptr %27, ptr %4, align 8, !tbaa !109
  %28 = getelementptr inbounds nuw i8, ptr %4, i64 8
  store ptr %0, ptr %28, align 8, !tbaa !112
  %29 = getelementptr inbounds nuw i8, ptr %4, i64 16
  store ptr null, ptr %29, align 8, !tbaa !113
  %30 = getelementptr inbounds nuw i8, ptr %1, i64 8
  %31 = load ptr, ptr %30, align 8, !tbaa !45
  %32 = call i32 @H5HF_op(ptr noundef %31, ptr noundef nonnull %0, ptr noundef nonnull @H5A__dense_copy_fh_cb, ptr noundef nonnull %4) #7
  %33 = icmp slt i32 %32, 0
  br i1 %33, label %.thread28, label %37

.thread28:                                        ; preds = %26
  %34 = load i64, ptr @H5E_ATTR_g, align 8, !tbaa !27
  %35 = load i64, ptr @H5E_CANTOPERATE_g, align 8, !tbaa !27
  %36 = call i32 (ptr, ptr, i32, i64, i64, ptr, ...) @H5E_printf_stack(ptr noundef nonnull @.str, ptr noundef nonnull @__func__.H5A__dense_delete_bt2_cb, i32 noundef 1752, i64 noundef %34, i64 noundef %35, ptr noundef nonnull @.str.50) #7
  call void @llvm.lifetime.end.p0(i64 24, ptr nonnull %4) #7
  br label %49

37:                                               ; preds = %26
  %38 = load ptr, ptr %29, align 8, !tbaa !113
  %39 = load ptr, ptr %1, align 8, !tbaa !41
  %40 = call i32 @H5O__attr_delete(ptr noundef %39, ptr noundef null, ptr noundef %38) #7
  %41 = icmp slt i32 %40, 0
  br i1 %41, label %42, label %46

42:                                               ; preds = %37
  %43 = load i64, ptr @H5E_ATTR_g, align 8, !tbaa !27
  %44 = load i64, ptr @H5E_CANTDELETE_g, align 8, !tbaa !27
  %45 = call i32 (ptr, ptr, i32, i64, i64, ptr, ...) @H5E_printf_stack(ptr noundef nonnull @.str, ptr noundef nonnull @__func__.H5A__dense_delete_bt2_cb, i32 noundef 1758, i64 noundef %43, i64 noundef %44, ptr noundef nonnull @.str.56) #7
  br label %46

46:                                               ; preds = %42, %37
  %.3 = phi i32 [ -1, %42 ], [ 0, %37 ]
  call void @llvm.lifetime.end.p0(i64 24, ptr nonnull %4) #7
  %.not24 = icmp eq ptr %38, null
  br i1 %.not24, label %49, label %47

47:                                               ; preds = %46
  %48 = call ptr @H5O_msg_free_real(ptr noundef nonnull @H5O_MSG_ATTR, ptr noundef nonnull %38) #7
  br label %49

49:                                               ; preds = %.thread28, %.thread, %2, %47, %46
  %.023 = phi i32 [ %.3, %47 ], [ %.3, %46 ], [ 0, %2 ], [ %.120, %.thread ], [ -1, %.thread28 ]
  ret i32 %.023
}